target datalayout = "e-m:e-p270:32:32-p271:32:32-p272:64:64-i64:64-i128:128-f80:128-n8:16:32:64-S128"
target triple = "x86_64-pc-linux-gnu"

%struct.expert_field = type { i32, i32 }
%struct.ieee80211_tagged_field_data = type { i32, ptr, i8, ptr, ptr }

@ei_ieee80211_tag_length = internal global %struct.expert_field zeroinitializer, align 4
@hf_ieee80211_tag_supported_ope_classes_current = internal global i32 0, align 4
@hf_ieee80211_tag_supported_ope_classes_alternate = internal global i32 0, align 4
@.str.9971 = private unnamed_addr constant [5 x i8] c": %d\00", align 1
@.str.9999 = private unnamed_addr constant [34 x i8] c"Tag Length %u wrong, must be >= 2\00", align 1
@.str.10246 = private unnamed_addr constant [34 x i8] c"Tag Length %u wrong, uint8 <= 255\00", align 1
@.str.10247 = private unnamed_addr constant [5 x i8] c", %d\00", align 1

; Function Attrs: null_pointer_is_valid sspstrong uwtable
define internal i32 @ieee80211_tag_supported_operating_classes(ptr noundef %0, ptr noundef %1, ptr noundef %2, ptr noundef %3) #1 {
  %5 = alloca i32, align 4
  %6 = alloca ptr, align 8
  %7 = alloca ptr, align 8
  %8 = alloca ptr, align 8
  %9 = alloca ptr, align 8
  %10 = alloca i32, align 4
  %11 = alloca ptr, align 8
  %12 = alloca i32, align 4
  %13 = alloca ptr, align 8
  %14 = alloca i8, align 1
  %15 = alloca i8, align 1
  %16 = alloca [256 x i8], align 16
  %17 = alloca i32, align 4
  %18 = alloca i8, align 1
  store ptr %0, ptr %6, align 8
  store ptr %1, ptr %7, align 8
  store ptr %2, ptr %8, align 8
  store ptr %3, ptr %9, align 8
  call void @llvm.lifetime.start.p0(i64 4, ptr %10) #19
  %19 = load ptr, ptr %6, align 8
  %20 = call i32 @tvb_reported_length(ptr noundef %19)
  store i32 %20, ptr %10, align 4
  call void @llvm.lifetime.start.p0(i64 8, ptr %11) #19
  %21 = load ptr, ptr %9, align 8
  store ptr %21, ptr %11, align 8
  call void @llvm.lifetime.start.p0(i64 4, ptr %12) #19
  store i32 0, ptr %12, align 4
  call void @llvm.lifetime.start.p0(i64 8, ptr %13) #19
  store ptr null, ptr %13, align 8
  call void @llvm.lifetime.start.p0(i64 1, ptr %14) #19
  call void @llvm.lifetime.start.p0(i64 1, ptr %15) #19
  store i8 0, ptr %15, align 1
  call void @llvm.lifetime.start.p0(i64 256, ptr %16) #19
  %22 = load i32, ptr %10, align 4
  %23 = icmp slt i32 %22, 2
  br i1 %23, label %24, label %33

24:                                               ; preds = %4
  %25 = load ptr, ptr %7, align 8
  %26 = load ptr, ptr %11, align 8
  %27 = getelementptr inbounds nuw %struct.ieee80211_tagged_field_data, ptr %26, i32 0, i32 4
  %28 = load ptr, ptr %27, align 8
  %29 = load i32, ptr %10, align 4
  %30 = call ptr (ptr, ptr, ptr, ptr, ...) @expert_add_info_format(ptr noundef %25, ptr noundef %28, ptr noundef @ei_ieee80211_tag_length, ptr noundef @.str.9999, i32 noundef %29)
  %31 = load ptr, ptr %6, align 8
  %32 = call i32 @tvb_captured_length(ptr noundef %31)
  store i32 %32, ptr %5, align 4
  store i32 1, ptr %17, align 4
  br label %120

33:                                               ; preds = %4
  %34 = load i32, ptr %10, align 4
  %35 = icmp sgt i32 %34, 255
  br i1 %35, label %36, label %45

36:                                               ; preds = %33
  %37 = load ptr, ptr %7, align 8
  %38 = load ptr, ptr %11, align 8
  %39 = getelementptr inbounds nuw %struct.ieee80211_tagged_field_data, ptr %38, i32 0, i32 4
  %40 = load ptr, ptr %39, align 8
  %41 = load i32, ptr %10, align 4
  %42 = call ptr (ptr, ptr, ptr, ptr, ...) @expert_add_info_format(ptr noundef %37, ptr noundef %40, ptr noundef @ei_ieee80211_tag_length, ptr noundef @.str.10246, i32 noundef %41)
  %43 = load ptr, ptr %6, align 8
  %44 = call i32 @tvb_captured_length(ptr noundef %43)
  store i32 %44, ptr %5, align 4
  store i32 1, ptr %17, align 4
  br label %120

45:                                               ; preds = %33
  br label %46

46:                                               ; preds = %45
  %47 = load ptr, ptr %8, align 8
  %48 = load i32, ptr @hf_ieee80211_tag_supported_ope_classes_current, align 4
  %49 = load ptr, ptr %6, align 8
  %50 = load i32, ptr %12, align 4
  %51 = add i32 %50, 1
  store i32 %51, ptr %12, align 4
  %52 = call ptr @proto_tree_add_item(ptr noundef %47, i32 noundef %48, ptr noundef %49, i32 noundef %50, i32 noundef 1, i32 noundef 0)
  %53 = load i32, ptr %12, align 4
  %54 = trunc i32 %53 to i8
  store i8 %54, ptr %14, align 1
  br label %55

55:                                               ; preds = %82, %46
  %56 = load i8, ptr %14, align 1
  %57 = zext i8 %56 to i32
  %58 = load i32, ptr %10, align 4
  %59 = icmp slt i32 %57, %58
  br i1 %59, label %60, label %85

60:                                               ; preds = %55
  call void @llvm.lifetime.start.p0(i64 1, ptr %18) #19
  %61 = load ptr, ptr %6, align 8
  %62 = load i8, ptr %14, align 1
  %63 = zext i8 %62 to i32
  %64 = call zeroext i8 @tvb_get_uint8(ptr noundef %61, i32 noundef %63)
  store i8 %64, ptr %18, align 1
  %65 = load i8, ptr %18, align 1
  %66 = zext i8 %65 to i32
  %67 = icmp eq i32 %66, 130
  br i1 %67, label %72, label %68

68:                                               ; preds = %60
  %69 = load i8, ptr %18, align 1
  %70 = zext i8 %69 to i32
  %71 = icmp eq i32 %70, 0
  br i1 %71, label %72, label %73

72:                                               ; preds = %68, %60
  store i32 2, ptr %17, align 4
  br label %79

73:                                               ; preds = %68
  %74 = load i8, ptr %18, align 1
  %75 = load i8, ptr %15, align 1
  %76 = add i8 %75, 1
  store i8 %76, ptr %15, align 1
  %77 = zext i8 %75 to i64
  %78 = getelementptr [256 x i8], ptr %16, i64 0, i64 %77
  store i8 %74, ptr %78, align 1
  store i32 0, ptr %17, align 4
  br label %79

79:                                               ; preds = %73, %72
  call void @llvm.lifetime.end.p0(i64 1, ptr %18) #19
  %80 = load i32, ptr %17, align 4
  switch i32 %80, label %122 [
    i32 0, label %81
    i32 2, label %85
  ]

81:                                               ; preds = %79
  br label %82

82:                                               ; preds = %81
  %83 = load i8, ptr %14, align 1
  %84 = add i8 %83, 1
  store i8 %84, ptr %14, align 1
  br label %55, !llvm.loop !62

85:                                               ; preds = %79, %55
  %86 = load i8, ptr %15, align 1
  %87 = icmp ne i8 %86, 0
  br i1 %87, label %88, label %96

88:                                               ; preds = %85
  %89 = load ptr, ptr %8, align 8
  %90 = load i32, ptr @hf_ieee80211_tag_supported_ope_classes_alternate, align 4
  %91 = load ptr, ptr %6, align 8
  %92 = load i32, ptr %12, align 4
  %93 = load i8, ptr %15, align 1
  %94 = zext i8 %93 to i32
  %95 = call ptr @proto_tree_add_item(ptr noundef %89, i32 noundef %90, ptr noundef %91, i32 noundef %92, i32 noundef %94, i32 noundef 0)
  store ptr %95, ptr %13, align 8
  br label %96

96:                                               ; preds = %88, %85
  store i8 0, ptr %14, align 1
  br label %97

97:                                               ; preds = %114, %96
  %98 = load i8, ptr %14, align 1
  %99 = zext i8 %98 to i32
  %100 = load i8, ptr %15, align 1
  %101 = zext i8 %100 to i32
  %102 = icmp slt i32 %99, %101
  br i1 %102, label %103, label %117

103:                                              ; preds = %97
  %104 = load ptr, ptr %13, align 8
  %105 = load i8, ptr %14, align 1
  %106 = zext i8 %105 to i32
  %107 = icmp eq i32 %106, 0
  %108 = select i1 %107, ptr @.str.9971, ptr @.str.10247
  %109 = load i8, ptr %14, align 1
  %110 = zext i8 %109 to i64
  %111 = getelementptr [256 x i8], ptr %16, i64 0, i64 %110
  %112 = load i8, ptr %111, align 1
  %113 = zext i8 %112 to i32
  call void (ptr, ptr, ...) @proto_item_append_text(ptr noundef %104, ptr noundef %108, i32 noundef %113)
  br label %114

114:                                              ; preds = %103
  %115 = load i8, ptr %14, align 1
  %116 = add i8 %115, 1
  store i8 %116, ptr %14, align 1
  br label %97, !llvm.loop !63

117:                                              ; preds = %97
  %118 = load ptr, ptr %6, align 8
  %119 = call i32 @tvb_captured_length(ptr noundef %118)
  store i32 %119, ptr %5, align 4
  store i32 1, ptr %17, align 4
  br label %120

120:                                              ; preds = %117, %36, %24
  call void @llvm.lifetime.end.p0(i64 256, ptr %16) #19
  call void @llvm.lifetime.end.p0(i64 1, ptr %15) #19
  call void @llvm.lifetime.end.p0(i64 1, ptr %14) #19
  call void @llvm.lifetime.end.p0(i64 8, ptr %13) #19
  call void @llvm.lifetime.end.p0(i64 4, ptr %12) #19
  call void @llvm.lifetime.end.p0(i64 8, ptr %11) #19
  call void @llvm.lifetime.end.p0(i64 4, ptr %10) #19
  %121 = load i32, ptr %5, align 4
  ret i32 %121

122:                                              ; preds = %79
  unreachable
}