; Function Attrs: null_pointer_is_valid sspstrong uwtable
define internal i32 @ieee80211_tag_supported_operating_classes(ptr noundef %0, ptr noundef %1, ptr noundef %2, ptr noundef readonly captures(none) %3) #2 {
  %5 = alloca [256 x i8], align 16
  %6 = tail call i32 @tvb_reported_length(ptr noundef %0)
  call void @llvm.lifetime.start.p0(i64 256, ptr nonnull %5) #24
  %7 = icmp slt i32 %6, 2
  br i1 %7, label %._crit_edge62.sink.split, label %8

8:                                                ; preds = %4
  %9 = icmp samesign ugt i32 %6, 255
  br i1 %9, label %._crit_edge62.sink.split, label %.lr.ph.preheader

.lr.ph.preheader:                                 ; preds = %8
  %10 = load i32, ptr @hf_ieee80211_tag_supported_ope_classes_current, align 4
  %11 = tail call ptr @proto_tree_add_item(ptr noundef %2, i32 noundef %10, ptr noundef %0, i32 noundef 0, i32 noundef 1, i32 noundef 0)
  %12 = trunc nuw i32 %6 to i8
  br label %.lr.ph

.lr.ph:                                           ; preds = %.lr.ph.preheader, %15
  %13 = phi i32 [ %20, %15 ], [ 1, %.lr.ph.preheader ]
  %.04154 = phi i8 [ %16, %15 ], [ 0, %.lr.ph.preheader ]
  %.04253 = phi i8 [ %19, %15 ], [ 1, %.lr.ph.preheader ]
  %14 = tail call zeroext i8 @tvb_get_uint8(ptr noundef %0, i32 noundef %13)
  switch i8 %14, label %15 [
    i8 -126, label %._crit_edge
    i8 0, label %._crit_edge
  ]

15:                                               ; preds = %.lr.ph
  %16 = add i8 %.04154, 1
  %17 = zext i8 %.04154 to i64
  %18 = getelementptr [256 x i8], ptr %5, i64 0, i64 %17
  store i8 %14, ptr %18, align 1
  %19 = add nuw i8 %.04253, 1
  %20 = zext i8 %19 to i32
  %21 = icmp ult i8 %19, %12
  br i1 %21, label %.lr.ph, label %._crit_edge, !llvm.loop !147

._crit_edge:                                      ; preds = %15, %.lr.ph, %.lr.ph
  %.041.lcssa.ph = phi i8 [ %16, %15 ], [ %.04154, %.lr.ph ], [ %.04154, %.lr.ph ]
  %.not = icmp eq i8 %.041.lcssa.ph, 0
  br i1 %.not, label %._crit_edge62, label %.lr.ph61.preheader

.lr.ph61.preheader:                               ; preds = %._crit_edge
  %22 = load i32, ptr @hf_ieee80211_tag_supported_ope_classes_alternate, align 4
  %23 = zext i8 %.041.lcssa.ph to i32
  %24 = tail call ptr @proto_tree_add_item(ptr noundef %2, i32 noundef %22, ptr noundef %0, i32 noundef 1, i32 noundef %23, i32 noundef 0)
  %wide.trip.count = zext i8 %.041.lcssa.ph to i64
  br label %.lr.ph61

.lr.ph61:                                         ; preds = %.lr.ph61.preheader, %.lr.ph61
  %indvars.iv = phi i64 [ 0, %.lr.ph61.preheader ], [ %indvars.iv.next, %.lr.ph61 ]
  %25 = icmp eq i64 %indvars.iv, 0
  %26 = select i1 %25, ptr @.str.9971, ptr @.str.10247
  %27 = getelementptr [256 x i8], ptr %5, i64 0, i64 %indvars.iv
  %28 = load i8, ptr %27, align 1
  %29 = zext i8 %28 to i32
  tail call void (ptr, ptr, ...) @proto_item_append_text(ptr noundef %24, ptr noundef nonnull %26, i32 noundef %29)
  %indvars.iv.next = add nuw nsw i64 %indvars.iv, 1
  %exitcond.not = icmp eq i64 %indvars.iv.next, %wide.trip.count
  br i1 %exitcond.not, label %._crit_edge62, label %.lr.ph61, !llvm.loop !148

._crit_edge62.sink.split:                         ; preds = %8, %4
  %.str.10246.sink = phi ptr [ @.str.9999, %4 ], [ @.str.10246, %8 ]
  %30 = getelementptr inbounds nuw i8, ptr %3, i64 32
  %31 = load ptr, ptr %30, align 8
  %32 = tail call ptr (ptr, ptr, ptr, ptr, ...) @expert_add_info_format(ptr noundef %1, ptr noundef %31, ptr noundef nonnull @ei_ieee80211_tag_length, ptr noundef nonnull %.str.10246.sink, i32 noundef %6)
  br label %._crit_edge62

._crit_edge62:                                    ; preds = %.lr.ph61, %._crit_edge62.sink.split, %._crit_edge
  %33 = tail call i32 @tvb_captured_length(ptr noundef %0)
  call void @llvm.lifetime.end.p0(i64 256, ptr nonnull %5) #24
  ret i32 %33
}